; Function Attrs: mustprogress uwtable
define noundef zeroext i1 @_ZNK8QuantLib8CashFlow11hasOccurredERKNS_4DateEN5boost8optionalIbEE(ptr noundef nonnull align 8 dereferenceable(20) %this, ptr noundef nonnull align 8 dereferenceable(8) %refDate, i16 %includeRefDate.coerce) unnamed_addr #7 align 2 personality ptr @__gxx_personality_v0 {
entry:
  %ref.tmp.i = alloca %"class.QuantLib::Date", align 8
  %ref.tmp = alloca %"class.QuantLib::Date", align 8
  %ref.tmp10 = alloca %"class.QuantLib::Date", align 8
  call void @llvm.lifetime.start.p0(i64 8, ptr nonnull %ref.tmp) #14
  call void @_ZN8QuantLib4DateC1Ev(ptr noundef nonnull align 8 dereferenceable(8) %ref.tmp)
  %0 = load i64, ptr %refDate, align 8, !tbaa !15
  %1 = load i64, ptr %ref.tmp, align 8, !tbaa !15
  %cmp.i.not = icmp eq i64 %0, %1
  call void @llvm.lifetime.end.p0(i64 8, ptr nonnull %ref.tmp) #14
  br i1 %cmp.i.not, label %if.end9, label %if.then

if.then:                                          ; preds = %entry
  %vtable = load ptr, ptr %this, align 8, !tbaa !13
  %vfn = getelementptr inbounds i8, ptr %vtable, i64 16
  %2 = load ptr, ptr %vfn, align 8
  %call2 = call i64 %2(ptr noundef nonnull align 8 dereferenceable(20) %this)
  %3 = load i64, ptr %refDate, align 8, !tbaa !15
  %cmp.i7 = icmp slt i64 %3, %call2
  br i1 %cmp.i7, label %return, label %cleanup

cleanup:                                          ; preds = %if.then
  %cmp.i8.not = icmp slt i64 %call2, %3
  br i1 %cmp.i8.not, label %return, label %if.end9

if.end9:                                          ; preds = %cleanup, %entry
  call void @llvm.lifetime.start.p0(i64 8, ptr nonnull %ref.tmp10) #14
  call void @_ZN8QuantLib4DateC1Ev(ptr noundef nonnull align 8 dereferenceable(8) %ref.tmp10)
  %4 = load i64, ptr %refDate, align 8, !tbaa !15
  %5 = load i64, ptr %ref.tmp10, align 8, !tbaa !15
  %cmp.i9 = icmp eq i64 %4, %5
  br i1 %cmp.i9, label %if.then18.critedge, label %lor.rhs

lor.rhs:                                          ; preds = %if.end9
  %6 = load atomic i8, ptr @_ZGVZN8QuantLib9SingletonINS_8SettingsESt17integral_constantIbLb0EEE8instanceEvE8instance acquire, align 8
  %guard.uninitialized.i = icmp eq i8 %6, 0
  br i1 %guard.uninitialized.i, label %init.check.i, label %_ZN8QuantLib9SingletonINS_8SettingsESt17integral_constantIbLb0EEE8instanceEv.exit, !prof !18

init.check.i:                                     ; preds = %lor.rhs
  %7 = call i32 @__cxa_guard_acquire(ptr nonnull @_ZGVZN8QuantLib9SingletonINS_8SettingsESt17integral_constantIbLb0EEE8instanceEvE8instance) #14
  %tobool.not.i = icmp eq i32 %7, 0
  br i1 %tobool.not.i, label %_ZN8QuantLib9SingletonINS_8SettingsESt17integral_constantIbLb0EEE8instanceEv.exit, label %init.i

init.i:                                           ; preds = %init.check.i
  invoke void @_ZN8QuantLib8SettingsC1Ev(ptr noundef nonnull align 8 dereferenceable(28) @_ZZN8QuantLib9SingletonINS_8SettingsESt17integral_constantIbLb0EEE8instanceEvE8instance)
          to label %invoke.cont.i unwind label %lpad.i

invoke.cont.i:                                    ; preds = %init.i
  %8 = call i32 @__cxa_atexit(ptr nonnull @_ZN8QuantLib8SettingsD2Ev, ptr nonnull @_ZZN8QuantLib9SingletonINS_8SettingsESt17integral_constantIbLb0EEE8instanceEvE8instance, ptr nonnull @__dso_handle) #14
  call void @__cxa_guard_release(ptr nonnull @_ZGVZN8QuantLib9SingletonINS_8SettingsESt17integral_constantIbLb0EEE8instanceEvE8instance) #14
  br label %_ZN8QuantLib9SingletonINS_8SettingsESt17integral_constantIbLb0EEE8instanceEv.exit

common.resume:                                    ; preds = %lpad.i15, %lpad.i
  %common.resume.op = phi { ptr, i32 } [ %9, %lpad.i ], [ %16, %lpad.i15 ]
  call void @__cxa_guard_abort(ptr nonnull @_ZGVZN8QuantLib9SingletonINS_8SettingsESt17integral_constantIbLb0EEE8instanceEvE8instance) #14
  resume { ptr, i32 } %common.resume.op

lpad.i:                                           ; preds = %init.i
  %9 = landingpad { ptr, i32 }
          cleanup
  br label %common.resume

_ZN8QuantLib9SingletonINS_8SettingsESt17integral_constantIbLb0EEE8instanceEv.exit: ; preds = %lor.rhs, %init.check.i, %invoke.cont.i
  call void @llvm.lifetime.start.p0(i64 8, ptr nonnull %ref.tmp.i) #14
  call void @_ZN8QuantLib4DateC1Ev(ptr noundef nonnull align 8 dereferenceable(8) %ref.tmp.i)
  %10 = load i64, ptr @_ZZN8QuantLib9SingletonINS_8SettingsESt17integral_constantIbLb0EEE8instanceEvE8instance, align 8, !tbaa !19
  %11 = load i64, ptr %ref.tmp.i, align 8, !tbaa !15
  %cmp.i.i = icmp eq i64 %10, %11
  call void @llvm.lifetime.end.p0(i64 8, ptr nonnull %ref.tmp.i) #14
  br i1 %cmp.i.i, label %if.then.i, label %_ZNK8QuantLib8Settings9DateProxycvNS_4DateEEv.exit

if.then.i:                                        ; preds = %_ZN8QuantLib9SingletonINS_8SettingsESt17integral_constantIbLb0EEE8instanceEv.exit
  %call3.i = call i64 @_ZN8QuantLib4Date10todaysDateEv()
  br label %_ZNK8QuantLib8Settings9DateProxycvNS_4DateEEv.exit

_ZNK8QuantLib8Settings9DateProxycvNS_4DateEEv.exit: ; preds = %_ZN8QuantLib9SingletonINS_8SettingsESt17integral_constantIbLb0EEE8instanceEv.exit, %if.then.i
  %retval.sroa.0.0.i = phi i64 [ %call3.i, %if.then.i ], [ %10, %_ZN8QuantLib9SingletonINS_8SettingsESt17integral_constantIbLb0EEE8instanceEv.exit ]
  %12 = load i64, ptr %refDate, align 8, !tbaa !15
  %cmp.i10 = icmp eq i64 %12, %retval.sroa.0.0.i
  call void @llvm.lifetime.end.p0(i64 8, ptr nonnull %ref.tmp10) #14
  br i1 %cmp.i10, label %if.then18, label %if.end24

if.then18.critedge:                               ; preds = %if.end9
  call void @llvm.lifetime.end.p0(i64 8, ptr nonnull %ref.tmp10) #14
  br label %if.then18

if.then18:                                        ; preds = %if.then18.critedge, %_ZNK8QuantLib8Settings9DateProxycvNS_4DateEEv.exit
  %13 = load atomic i8, ptr @_ZGVZN8QuantLib9SingletonINS_8SettingsESt17integral_constantIbLb0EEE8instanceEvE8instance acquire, align 8
  %guard.uninitialized.i11 = icmp eq i8 %13, 0
  br i1 %guard.uninitialized.i11, label %init.check.i12, label %_ZN8QuantLib9SingletonINS_8SettingsESt17integral_constantIbLb0EEE8instanceEv.exit17, !prof !18

init.check.i12:                                   ; preds = %if.then18
  %14 = call i32 @__cxa_guard_acquire(ptr nonnull @_ZGVZN8QuantLib9SingletonINS_8SettingsESt17integral_constantIbLb0EEE8instanceEvE8instance) #14
  %tobool.not.i13 = icmp eq i32 %14, 0
  br i1 %tobool.not.i13, label %_ZN8QuantLib9SingletonINS_8SettingsESt17integral_constantIbLb0EEE8instanceEv.exit17, label %init.i14

init.i14:                                         ; preds = %init.check.i12
  invoke void @_ZN8QuantLib8SettingsC1Ev(ptr noundef nonnull align 8 dereferenceable(28) @_ZZN8QuantLib9SingletonINS_8SettingsESt17integral_constantIbLb0EEE8instanceEvE8instance)
          to label %invoke.cont.i16 unwind label %lpad.i15

invoke.cont.i16:                                  ; preds = %init.i14
  %15 = call i32 @__cxa_atexit(ptr nonnull @_ZN8QuantLib8SettingsD2Ev, ptr nonnull @_ZZN8QuantLib9SingletonINS_8SettingsESt17integral_constantIbLb0EEE8instanceEvE8instance, ptr nonnull @__dso_handle) #14
  call void @__cxa_guard_release(ptr nonnull @_ZGVZN8QuantLib9SingletonINS_8SettingsESt17integral_constantIbLb0EEE8instanceEvE8instance) #14
  br label %_ZN8QuantLib9SingletonINS_8SettingsESt17integral_constantIbLb0EEE8instanceEv.exit17

lpad.i15:                                         ; preds = %init.i14
  %16 = landingpad { ptr, i32 }
          cleanup
  br label %common.resume

_ZN8QuantLib9SingletonINS_8SettingsESt17integral_constantIbLb0EEE8instanceEv.exit17: ; preds = %if.then18, %init.check.i12, %invoke.cont.i16
  %17 = load i16, ptr getelementptr inbounds nuw (i8, ptr @_ZZN8QuantLib9SingletonINS_8SettingsESt17integral_constantIbLb0EEE8instanceEvE8instance, i64 25), align 1
  %loadedv.i.i = trunc i16 %17 to i1
  %spec.select = select i1 %loadedv.i.i, i16 %17, i16 %includeRefDate.coerce
  br label %if.end24

if.end24:                                         ; preds = %_ZN8QuantLib9SingletonINS_8SettingsESt17integral_constantIbLb0EEE8instanceEv.exit17, %_ZNK8QuantLib8Settings9DateProxycvNS_4DateEEv.exit
  %includeRefDate.sroa.0.0 = phi i16 [ %spec.select, %_ZN8QuantLib9SingletonINS_8SettingsESt17integral_constantIbLb0EEE8instanceEv.exit17 ], [ %includeRefDate.coerce, %_ZNK8QuantLib8Settings9DateProxycvNS_4DateEEv.exit ]
  %call26 = call noundef zeroext i1 @_ZNK8QuantLib5Event11hasOccurredERKNS_4DateEN5boost8optionalIbEE(ptr noundef nonnull align 8 dereferenceable(8) %this, ptr noundef nonnull align 8 dereferenceable(8) %refDate, i16 %includeRefDate.sroa.0.0)
  br label %return

return:                                           ; preds = %if.then, %cleanup, %if.end24
  %retval.1 = phi i1 [ true, %cleanup ], [ %call26, %if.end24 ], [ false, %if.then ]
  ret i1 %retval.1
}